; Function Attrs: mustprogress nofree norecurse nosync nounwind willreturn memory(read, inaccessiblemem: none) uwtable
define hidden noundef nonnull align 8 dereferenceable(520) ptr @_ZNK10polynomial7manager9allocatorEv(ptr nocapture noundef nonnull readonly align 8 dereferenceable(8) %this) local_unnamed_addr #7 align 2 {
entry:
  %0 = load ptr, ptr %this, align 8
  %m_monomial_manager.i = getelementptr inbounds i8, ptr %0, i64 464
  %1 = load ptr, ptr %m_monomial_manager.i, align 8
  %m_allocator.i = getelementptr inbounds i8, ptr %1, i64 8
  %2 = load ptr, ptr %m_allocator.i, align 8
  ret ptr %2
}